target datalayout = "e-m:e-p270:32:32-p271:32:32-p272:64:64-i64:64-i128:128-f80:128-n8:16:32:64-S128"
target triple = "x86_64-pc-linux-gnu"

%struct.KINMemRec = type { double, ptr, ptr, double, double, i32, i32, i64, i64, i64, i64, i32, i32, i32, i32, i32, i32, i32, i32, i32, double, double, double, double, double, double, double, double, double, i32, double, i64, i64, i64, i64, i64, i64, i64, ptr, ptr, ptr, ptr, ptr, ptr, ptr, ptr, ptr, ptr, ptr, ptr, ptr, ptr, ptr, ptr, ptr, ptr, i64, i32, i32, i64, i64, i64, i64, ptr, ptr, ptr, ptr, i32, ptr, double, double, double, double, double, i32, double, double, double, i32, ptr, ptr, ptr, ptr, ptr, ptr }

@.str = private unnamed_addr constant [7 x i8] c"KINSOL\00", align 1
@.str.2 = private unnamed_addr constant [27 x i8] c"kinsol_mem = NULL illegal.\00", align 1
@.str.26 = private unnamed_addr constant [19 x i8] c"KINSetResMonParams\00", align 1
@.str.27 = private unnamed_addr constant [21 x i8] c"scalars < 0 illegal.\00", align 1

; Function Attrs: nounwind uwtable
define i32 @KINSetResMonParams(ptr noundef %0, double noundef %1, double noundef %2) #0 {
  %4 = alloca i32, align 4
  %5 = alloca ptr, align 8
  %6 = alloca double, align 8
  %7 = alloca double, align 8
  %8 = alloca ptr, align 8
  store ptr %0, ptr %5, align 8
  store double %1, ptr %6, align 8
  store double %2, ptr %7, align 8
  %9 = load ptr, ptr %5, align 8
  %10 = icmp eq ptr %9, null
  br i1 %10, label %11, label %12

11:                                               ; preds = %3
  call void (ptr, i32, ptr, ptr, ptr, ...) @KINProcessError(ptr noundef null, i32 noundef -1, ptr noundef @.str, ptr noundef @.str.26, ptr noundef @.str.2)
  store i32 -1, ptr %4, align 4
  br label %57

12:                                               ; preds = %3
  %13 = load ptr, ptr %5, align 8
  store ptr %13, ptr %8, align 8
  %14 = load double, ptr %6, align 8
  %15 = fcmp olt double %14, 0.000000e+00
  br i1 %15, label %16, label %17

16:                                               ; preds = %12
  call void (ptr, i32, ptr, ptr, ptr, ...) @KINProcessError(ptr noundef null, i32 noundef -2, ptr noundef @.str, ptr noundef @.str.26, ptr noundef @.str.27)
  store i32 -2, ptr %4, align 4
  br label %57

17:                                               ; preds = %12
  %18 = load double, ptr %6, align 8
  %19 = fcmp oeq double %18, 0.000000e+00
  br i1 %19, label %20, label %23

20:                                               ; preds = %17
  %21 = load ptr, ptr %8, align 8
  %22 = getelementptr inbounds %struct.KINMemRec, ptr %21, i32 0, i32 76
  store double 1.000000e-05, ptr %22, align 8
  br label %27

23:                                               ; preds = %17
  %24 = load double, ptr %6, align 8
  %25 = load ptr, ptr %8, align 8
  %26 = getelementptr inbounds %struct.KINMemRec, ptr %25, i32 0, i32 76
  store double %24, ptr %26, align 8
  br label %27

27:                                               ; preds = %23, %20
  %28 = load double, ptr %7, align 8
  %29 = fcmp olt double %28, 0.000000e+00
  br i1 %29, label %30, label %31

30:                                               ; preds = %27
  call void (ptr, i32, ptr, ptr, ptr, ...) @KINProcessError(ptr noundef null, i32 noundef -2, ptr noundef @.str, ptr noundef @.str.26, ptr noundef @.str.27)
  store i32 -2, ptr %4, align 4
  br label %57

31:                                               ; preds = %27
  %32 = load double, ptr %7, align 8
  %33 = fcmp oeq double %32, 0.000000e+00
  br i1 %33, label %34, label %44

34:                                               ; preds = %31
  %35 = load ptr, ptr %8, align 8
  %36 = getelementptr inbounds %struct.KINMemRec, ptr %35, i32 0, i32 76
  %37 = load double, ptr %36, align 8
  %38 = fcmp ogt double %37, 9.000000e-01
  br i1 %38, label %39, label %40

39:                                               ; preds = %34
  call void (ptr, i32, ptr, ptr, ptr, ...) @KINProcessError(ptr noundef null, i32 noundef -2, ptr noundef @.str, ptr noundef @.str.26, ptr noundef @.str.27)
  store i32 -2, ptr %4, align 4
  br label %57

40:                                               ; preds = %34
  %41 = load ptr, ptr %8, align 8
  %42 = getelementptr inbounds %struct.KINMemRec, ptr %41, i32 0, i32 77
  store double 9.000000e-01, ptr %42, align 8
  br label %43

43:                                               ; preds = %40
  br label %56

44:                                               ; preds = %31
  %45 = load ptr, ptr %8, align 8
  %46 = getelementptr inbounds %struct.KINMemRec, ptr %45, i32 0, i32 76
  %47 = load double, ptr %46, align 8
  %48 = load double, ptr %7, align 8
  %49 = fcmp ogt double %47, %48
  br i1 %49, label %50, label %51

50:                                               ; preds = %44
  call void (ptr, i32, ptr, ptr, ptr, ...) @KINProcessError(ptr noundef null, i32 noundef -2, ptr noundef @.str, ptr noundef @.str.26, ptr noundef @.str.27)
  store i32 -2, ptr %4, align 4
  br label %57

51:                                               ; preds = %44
  %52 = load double, ptr %7, align 8
  %53 = load ptr, ptr %8, align 8
  %54 = getelementptr inbounds %struct.KINMemRec, ptr %53, i32 0, i32 77
  store double %52, ptr %54, align 8
  br label %55

55:                                               ; preds = %51
  br label %56

56:                                               ; preds = %55, %43
  store i32 0, ptr %4, align 4
  br label %57

57:                                               ; preds = %56, %50, %39, %30, %16, %11
  %58 = load i32, ptr %4, align 4
  ret i32 %58
}