; Function Attrs: nounwind uwtable
define range(i32 -2, 1) i32 @KINSetResMonParams(ptr noundef writeonly %0, double noundef %1, double noundef %2) local_unnamed_addr #0 {
  %4 = icmp eq ptr %0, null
  br i1 %4, label %5, label %6

5:                                                ; preds = %3
  tail call void (ptr, i32, ptr, ptr, ptr, ...) @KINProcessError(ptr noundef null, i32 noundef -1, ptr noundef nonnull @.str, ptr noundef nonnull @.str.26, ptr noundef nonnull @.str.2) #6
  br label %27

6:                                                ; preds = %3
  %7 = fcmp olt double %1, 0.000000e+00
  br i1 %7, label %8, label %9

8:                                                ; preds = %6
  tail call void (ptr, i32, ptr, ptr, ptr, ...) @KINProcessError(ptr noundef null, i32 noundef -2, ptr noundef nonnull @.str, ptr noundef nonnull @.str.26, ptr noundef nonnull @.str.27) #6
  br label %27

9:                                                ; preds = %6
  %10 = fcmp oeq double %1, 0.000000e+00
  %11 = select i1 %10, double 1.000000e-05, double %1
  %12 = getelementptr inbounds nuw i8, ptr %0, i64 560
  store double %11, ptr %12, align 8
  %13 = fcmp olt double %2, 0.000000e+00
  br i1 %13, label %14, label %15

14:                                               ; preds = %9
  tail call void (ptr, i32, ptr, ptr, ptr, ...) @KINProcessError(ptr noundef null, i32 noundef -2, ptr noundef nonnull @.str, ptr noundef nonnull @.str.26, ptr noundef nonnull @.str.27) #6
  br label %27

15:                                               ; preds = %9
  %16 = fcmp oeq double %2, 0.000000e+00
  br i1 %16, label %17, label %22

17:                                               ; preds = %15
  %18 = fcmp ogt double %11, 9.000000e-01
  br i1 %18, label %19, label %20

19:                                               ; preds = %17
  tail call void (ptr, i32, ptr, ptr, ptr, ...) @KINProcessError(ptr noundef null, i32 noundef -2, ptr noundef nonnull @.str, ptr noundef nonnull @.str.26, ptr noundef nonnull @.str.27) #6
  br label %27

20:                                               ; preds = %17
  %21 = getelementptr inbounds nuw i8, ptr %0, i64 568
  store double 9.000000e-01, ptr %21, align 8
  br label %27

22:                                               ; preds = %15
  %23 = fcmp ogt double %11, %2
  br i1 %23, label %24, label %25

24:                                               ; preds = %22
  tail call void (ptr, i32, ptr, ptr, ptr, ...) @KINProcessError(ptr noundef null, i32 noundef -2, ptr noundef nonnull @.str, ptr noundef nonnull @.str.26, ptr noundef nonnull @.str.27) #6
  br label %27

25:                                               ; preds = %22
  %26 = getelementptr inbounds nuw i8, ptr %0, i64 568
  store double %2, ptr %26, align 8
  br label %27

27:                                               ; preds = %20, %25, %24, %19, %14, %8, %5
  %.0 = phi i32 [ -1, %5 ], [ -2, %8 ], [ -2, %14 ], [ -2, %19 ], [ -2, %24 ], [ 0, %25 ], [ 0, %20 ]
  ret i32 %.0
}